-----BEGIN RSA PRIVATE KEY-----
Proc-Type: 4,ENCRYPTED
DEK-Info: DES-EDE3-CBC,14883B1533C9E518

s43WebKpIsvqkt8Ws3k9ipvWu1uNHHakDkPMXpY/Eie31Ab0aeIjtRsIH2mdDgW9
3UTSTfJmemLGMW5QYU5KpYDIDGu87JnZnKfl82UQvCzlg8KJAkRFuNlvLNVq6ZgJ
rv7LVPQKzoimJo3634ZmUMBzSXu2gqLStqauD4P5kPgtjoGx1NCajKo99/dN2+VH
oMkNzDOVsBlg7T7wPJo8FLJSw2LnJvAnFObIMQg/feMcp8EYV/KiEs3VhHM740F6
l8BDAVC5JGT18CtFpCGhV9hM8hqXrzOXYKa3DArhUxBQrrei6d+8vtqW/yD9eqAh
OTHukhEolTGYd4lNPappwu3BW31K80ist57Z2pbvEzHo7lhNiIXw5ROQbxsV6B/p
dPQnqoxc6LULgfAu6Ci0lV7Jt5C+ftefdEX/DCAdAJsZlbowTsTdZ6o3bpBHFhgM
a6e2sMMH5ouNAmI5PiXc7sjC9yqSZxaVGVyGxcQfhqgrKZFbPwTlC3JfFpYKZPsv
mQibIVXFNOIeK8V7w+jTzmmed1VKtS2+gROXhpnzpWpA+cRSnJQodGrOZD33wlBB
O82EaluHUFGwk28Io2j6ZXnOMav9MS8WF2AVkCn987ooF0uVyf6dwvM8xcCyixDc
Pjjves+VsO0zkibI5lPrlO+0Bsdmt6E4yaxv4GcPjqs/Nb0nd0WBOA2gAYNP4ojH
OE0w9bTj47Qimar4pRS1A8h/ipQ6HcHkBvebrUL8RW5eV2t+NfUYaDqlIeC1WbW+
etnfhWhI5yOyX/lLcmqLfJIYRTh72MaULKY6ViF9ZqtOBfryrbtA1/fbIcp5iRLW
Nor46QELuJx1JmO4n8MP2xQHzzZypHW5PTcDer5xhSAzjGHY0pNcU4SWNxYyXP++
fCe2iyHV+Wvk62tamCzteCTSrxNJU9HigZPk2jQmr7V1FWMDn+AgIyxQeDRL4e/S
fyDMQty6cn6/kkMRKRYXA2B469C151h1kreAIK+MQ3ATovmRXshHJfpDYerZ5Ue1
5UdkK1OlEC3nz3Jw2ocO9ffoTBp5gp9H0ey4OVZuG48i0M+iGbiSmtCwm+e7oEWI
1chLm1SsWTH5FiQdnB7mBZ+ybGoiYsxGfPN/VV0JKplvuh0YN+GoaRPsaereDTEa
/ZP3mL5h+MPYLVeEsi7UJfqtp2JZixlJ0hRmZDPAPits16VSS6aYORLKyzAJeN88
4szXTvkzXD3R0y6aU0bWzl/rqAnOU4TRUpUVsfT/oYURbd6AmVQ7EnmVyWTaU6Fz
bUKfCchm15V3XQ/jZ4toMcmM0fgAvhzGe9/E49V/saRHDtZVy8TnT2tPamThP32J
nLcUjRnDLbb7glt9viCYjMjAOXYkGFa4q9H2eIULh7Y9+GUopNn8MoTuFNQbRBK+
mI6KHaCgwq2oTYgaI3QRj9848gBmFw/nTISh9BkU9wwydN/HQsKEtj7DyqHZ0nLI
gpmo5/V7pO/F7/lpluG9VCLyUMz4nPIYj7KuyVU5IFRs92GkF+3wYxwq3mcDl2jG
u8ddh13epJWCnJXBFoOzru9IdfJcu3QdwV/vsBdj33b0C6Gkceik1Q==
-----END RSA PRIVATE KEY-----
Certificate:
    Data:
        Version: 3 (0x2)
        Serial Number:
            49:5e:ae:25:69:c3:64:a9:79:5a:07:c2:94:f1:7d:d5:31:5d:5a:48
        Signature Algorithm: sha256WithRSAEncryption
        Issuer: C = jp, ST = a, L = a, O = a, OU = a, CN = fz5.example
        Validity
            Not Before: Oct 21 03:49:50 2019 GMT
            Not After : Oct 20 03:49:50 2022 GMT
        Subject: C = jp, ST = a, L = a, O = a, OU = a, CN = fz5.example
        Subject Public Key Info:
            Public Key Algorithm: rsaEncryption
                RSA Public-Key: (2048 bit)
                Modulus:
                    00:a2:4b:40:59:e0:1a:58:53:19:67:36:79:75:db:
                    37:39:52:bb:43:a1:a9:02:39:4d:05:c7:ee:61:6a:
                    4d:e9:bb:e0:8a:32:04:8d:49:79:02:da:2b:a4:2a:
                    19:0b:f6:bc:a2:12:a7:a2:03:48:40:2e:e3:4e:ff:
                    7c:df:ea:98:0c:e6:b3:9c:e4:01:d7:b3:39:55:0c:
                    39:70:04:f7:25:32:27:49:0f:50:c6:e7:90:d2:bf:
                    59:76:bf:4d:4e:58:24:c6:5b:2a:74:5f:fc:52:19:
                    f8:47:b3:f4:21:ee:53:66:5b:b9:60:b2:5f:7b:c9:
                    4e:ec:5a:74:7f:91:e7:d7:67:3d:fb:9e:43:90:3d:
                    2f:9c:f0:e4:a0:ba:e3:20:a2:a5:60:35:a7:a9:57:
                    cd:59:1a:99:ce:d4:78:6e:48:51:9b:d4:3c:26:8c:
                    f9:b3:b3:fb:d8:a7:dd:c5:c4:d5:c7:31:b3:5c:4d:
                    4e:91:a9:d5:a6:20:42:44:42:bb:68:c9:f7:89:12:
                    57:fa:68:0c:75:03:21:2a:c4:95:5a:ac:11:12:01:
                    ed:fb:18:c2:8e:60:2a:47:d5:2c:78:8e:10:57:7c:
                    a7:12:7e:88:f2:b7:a6:2b:d6:d3:ae:dc:5b:76:d8:
                    a9:e2:bb:fc:02:28:0a:fc:e4:c0:a8:4a:55:46:99:
                    85:13
                Exponent: 65537 (0x10001)
        X509v3 extensions:
            X509v3 Subject Key Identifier: 
                2B:14:03:29:B7:53:76:98:DE:0F:48:C3:2C:6B:30:85:58:CA:3E:8E
            X509v3 Authority Key Identifier: 
                keyid:2B:14:03:29:B7:53:76:98:DE:0F:48:C3:2C:6B:30:85:58:CA:3E:8E
                DirName:/C=jp/ST=a/L=a/O=a/OU=a/CN=fz5.example
                serial:49:5E:AE:25:69:C3:64:A9:79:5A:07:C2:94:F1:7D:D5:31:5D:5A:48

            X509v3 Basic Constraints: 
                CA:TRUE
            X509v3 Key Usage: 
                Digital Signature, Key Encipherment, Certificate Sign
    Signature Algorithm: sha256WithRSAEncryption
         8a:ea:a9:78:5a:2e:be:84:bc:a0:60:c9:4e:33:d8:50:c7:e4:
         6a:ec:73:4e:90:07:98:d5:cb:95:5a:c5:d5:a4:45:b0:37:60:
         e7:34:59:88:85:b8:c0:68:9b:08:9a:e9:7f:be:97:70:c3:fa:
         a6:ef:52:42:17:53:b9:5a:1f:ad:05:d2:a5:46:46:3c:de:76:
         12:f5:68:24:1a:13:53:0c:7b:38:7b:39:96:82:67:b2:3f:c3:
         74:81:a7:98:2d:cc:d2:76:09:45:bd:c5:d3:1e:7a:26:84:af:
         36:b5:13:23:eb:cb:e1:b1:6a:fd:1d:5c:13:bc:7b:3b:53:66:
         fe:34:6f:c9:20:25:cf:02:de:2b:8c:62:b0:3f:c7:9b:a1:3f:
         0e:bd:f0:f0:39:86:b1:a8:b1:79:ea:a1:2a:c0:b1:f6:cb:4a:
         3b:4b:db:bb:f4:cb:1c:b1:15:f9:83:2d:ca:f2:e2:51:33:c4:
         52:73:89:48:c9:d0:84:78:c1:e0:21:f5:a9:f3:61:59:72:f0:
         1d:91:1c:73:89:f0:8b:d5:7b:c4:6e:ea:c6:b3:c2:52:b2:14:
         da:cb:b6:2d:19:29:f8:a8:77:31:94:99:b1:81:3d:e5:9a:ff:
         de:cd:e2:38:09:e3:df:dc:54:00:77:2d:cb:1a:b8:cb:73:40:
         03:ab:ca:c4
-----BEGIN CERTIFICATE-----
MIIEBTCCAu2gAwIBAgIUSV6uJWnDZKl5WgfClPF91TFdWkgwDQYJKoZIhvcNAQEL
BQAwUzELMAkGA1UEBhMCanAxCjAIBgNVBAgTAWExCjAIBgNVBAcTAWExCjAIBgNV
BAoTAWExCjAIBgNVBAsTAWExFDASBgNVBAMTC2Z6NS5leGFtcGxlMB4XDTE5MTAy
MTAzNDk1MFoXDTIyMTAyMDAzNDk1MFowUzELMAkGA1UEBhMCanAxCjAIBgNVBAgT
AWExCjAIBgNVBAcTAWExCjAIBgNVBAoTAWExCjAIBgNVBAsTAWExFDASBgNVBAMT
C2Z6NS5leGFtcGxlMIIBIjANBgkqhkiG9w0BAQEFAAOCAQ8AMIIBCgKCAQEAoktA
WeAaWFMZZzZ5dds3OVK7Q6GpAjlNBcfuYWpN6bvgijIEjUl5AtorpCoZC/a8ohKn
ogNIQC7jTv983+qYDOaznOQB17M5VQw5cAT3JTInSQ9QxueQ0r9Zdr9NTlgkxlsq
dF/8Uhn4R7P0Ie5TZlu5YLJfe8lO7Fp0f5Hn12c9+55DkD0vnPDkoLrjIKKlYDWn
qVfNWRqZztR4bkhRm9Q8Joz5s7P72KfdxcTVxzGzXE1OkanVpiBCREK7aMn3iRJX
+mgMdQMhKsSVWqwREgHt+xjCjmAqR9UseI4QV3ynEn6I8remK9bTrtxbdtip4rv8
AigK/OTAqEpVRpmFEwIDAQABo4HQMIHNMB0GA1UdDgQWBBQrFAMpt1N2mN4PSMMs
azCFWMo+jjCBkAYDVR0jBIGIMIGFgBQrFAMpt1N2mN4PSMMsazCFWMo+jqFXpFUw
UzELMAkGA1UEBhMCanAxCjAIBgNVBAgTAWExCjAIBgNVBAcTAWExCjAIBgNVBAoT
AWExCjAIBgNVBAsTAWExFDASBgNVBAMTC2Z6NS5leGFtcGxlghRJXq4lacNkqXla
B8KU8X3VMV1aSDAMBgNVHRMEBTADAQH/MAsGA1UdDwQEAwICpDANBgkqhkiG9w0B
AQsFAAOCAQEAiuqpeFouvoS8oGDJTjPYUMfkauxzTpAHmNXLlVrF1aRFsDdg5zRZ
iIW4wGibCJrpf76XcMP6pu9SQhdTuVofrQXSpUZGPN52EvVoJBoTUwx7OHs5loJn
sj/DdIGnmC3M0nYJRb3F0x56JoSvNrUTI+vL4bFq/R1cE7x7O1Nm/jRvySAlzwLe
K4xisD/Hm6E/Dr3w8DmGsaixeeqhKsCx9stKO0vbu/TLHLEV+YMtyvLiUTPEUnOJ
SMnQhHjB4CH1qfNhWXLwHZEcc4nwi9V7xG7qxrPCUrIU2su2LRkp+Kh3MZSZsYE9
5Zr/3s3iOAnj39xUAHctyxq4y3NAA6vKxA==
-----END CERTIFICATE-----
